target datalayout = "e-m:e-p270:32:32-p271:32:32-p272:64:64-i64:64-i128:128-f80:128-n8:16:32:64-S128"
target triple = "x86_64-unknown-linux-gnu"

%struct.spinlock = type { %union.anon.1 }
%union.anon.1 = type { %struct.raw_spinlock }
%struct.raw_spinlock = type { %struct.qspinlock }
%struct.qspinlock = type { %union.anon }
%union.anon = type { %struct.atomic_t }
%struct.atomic_t = type { i32 }
%struct.user_namespace = type opaque
%struct.proc_ns_operations = type { ptr, ptr, i32, ptr, ptr, ptr, ptr, ptr }
%struct.ipc_namespace = type { [3 x %struct.ipc_ids], [4 x i32], i32, i32, i32, i32, %struct.percpu_counter, %struct.percpu_counter, i64, i64, i64, i32, i32, %struct.notifier_block, ptr, i32, i32, i32, i32, i32, i32, %struct.ctl_table_set, ptr, %struct.ctl_table_set, ptr, ptr, ptr, %struct.llist_node, %struct.ns_common }
%struct.ipc_ids = type { i32, i16, %struct.rw_semaphore, %struct.idr, i32, i32, %struct.rhashtable }
%struct.rw_semaphore = type { %struct.atomic64_t, %struct.atomic64_t, %struct.optimistic_spin_queue, %struct.raw_spinlock, %struct.list_head }
%struct.atomic64_t = type { i64 }
%struct.optimistic_spin_queue = type { %struct.atomic_t }
%struct.list_head = type { ptr, ptr }
%struct.idr = type { %struct.xarray, i32, i32 }
%struct.xarray = type { %struct.spinlock, i32, ptr }
%struct.rhashtable = type { ptr, i32, i32, %struct.rhashtable_params, i8, %struct.work_struct, %struct.mutex, %struct.spinlock, %struct.atomic_t }
%struct.rhashtable_params = type { i16, i16, i16, i16, i32, i16, i8, ptr, ptr, ptr }
%struct.work_struct = type { %struct.atomic64_t, %struct.list_head, ptr }
%struct.mutex = type { %struct.atomic64_t, %struct.raw_spinlock, %struct.optimistic_spin_queue, %struct.list_head }
%struct.percpu_counter = type { %struct.raw_spinlock, i64, %struct.list_head, ptr }
%struct.notifier_block = type { ptr, ptr, i32 }
%struct.ctl_table_set = type { ptr, %struct.ctl_dir }
%struct.ctl_dir = type { %struct.ctl_table_header, %struct.rb_root }
%struct.ctl_table_header = type { %union.anon.2, ptr, ptr, ptr, ptr, ptr, ptr, %struct.hlist_head }
%union.anon.2 = type { %struct.anon.3 }
%struct.anon.3 = type { ptr, i32, i32, i32, i32 }
%struct.hlist_head = type { ptr }
%struct.rb_root = type { ptr }
%struct.llist_node = type { ptr }
%struct.ns_common = type { %struct.atomic64_t, ptr, i32, %struct.refcount_struct }
%struct.refcount_struct = type { %struct.atomic_t }
%struct.static_call_key = type { ptr, %union.anon.4 }
%union.anon.4 = type { i64 }

@mq_lock = dso_local local_unnamed_addr global %struct.spinlock zeroinitializer, align 4
@init_user_ns = external dso_local global %struct.user_namespace, align 1
@ipcns_operations = external dso_local constant %struct.proc_ns_operations, align 8
@init_ipc_ns = dso_local local_unnamed_addr global %struct.ipc_namespace { [3 x %struct.ipc_ids] zeroinitializer, [4 x i32] zeroinitializer, i32 0, i32 0, i32 0, i32 0, %struct.percpu_counter zeroinitializer, %struct.percpu_counter zeroinitializer, i64 0, i64 0, i64 0, i32 0, i32 0, %struct.notifier_block zeroinitializer, ptr null, i32 0, i32 0, i32 0, i32 0, i32 0, i32 0, %struct.ctl_table_set zeroinitializer, ptr null, %struct.ctl_table_set zeroinitializer, ptr null, ptr @init_user_ns, ptr null, %struct.llist_node zeroinitializer, %struct.ns_common { %struct.atomic64_t zeroinitializer, ptr @ipcns_operations, i32 -268435457, %struct.refcount_struct { %struct.atomic_t { i32 1 } } } }, align 8
@_cond_resched.__UNIQUE_ID___addressable___SCK__cond_resched203 = internal global ptr @__SCK__cond_resched, section ".discard.addressable", align 8
@__SCK__cond_resched = external dso_local global %struct.static_call_key, align 8
@llvm.compiler.used = appending global [1 x ptr] [ptr @_cond_resched.__UNIQUE_ID___addressable___SCK__cond_resched203], section "llvm.metadata"

; Function Attrs: fn_ret_thunk_extern nounwind null_pointer_is_valid
define dso_local ptr @load_msg(ptr noundef %0, i64 noundef %1) local_unnamed_addr #0 align 16 {
  %3 = tail call i64 @llvm.umin.i64(i64 %1, i64 4048)
  %4 = add nuw nsw i64 %3, 48
  %5 = tail call noalias align 8 ptr @__kmalloc(i64 noundef %4, i32 noundef 4197568) #6
  %6 = icmp eq ptr %5, null
  br i1 %6, label %33, label %7

7:                                                ; preds = %2
  %8 = getelementptr inbounds i8, ptr %5, i64 32
  %9 = sub i64 %1, %3
  tail call void @llvm.memset.p0.i64(ptr noundef align 8 dereferenceable(16) %8, i8 0, i64 16, i1 false)
  br label %10

10:                                               ; preds = %22, %7
  %11 = phi ptr [ %8, %7 ], [ %23, %22 ]
  %12 = phi i64 [ %9, %7 ], [ %24, %22 ]
  %13 = icmp eq i64 %12, 0
  br i1 %13, label %33, label %14

14:                                               ; preds = %10
  %15 = tail call i32 @__SCT__cond_resched() #7
  %16 = tail call i64 @llvm.umin.i64(i64 %12, i64 4088)
  %17 = add nuw nsw i64 %16, 8
  %18 = tail call noalias align 8 ptr @__kmalloc(i64 noundef %17, i32 noundef 4197568) #6
  %19 = icmp eq ptr %18, null
  br i1 %19, label %22, label %20

20:                                               ; preds = %14
  store ptr %18, ptr %11, align 8
  store ptr null, ptr %18, align 8
  %21 = sub i64 %12, %16
  br label %22

22:                                               ; preds = %20, %14
  %23 = phi ptr [ %18, %20 ], [ %11, %14 ]
  %24 = phi i64 [ %21, %20 ], [ %12, %14 ]
  br i1 %19, label %25, label %10

25:                                               ; preds = %22
  tail call void @security_msg_msg_free(ptr noundef nonnull %5) #7
  %26 = load ptr, ptr %8, align 8
  tail call void @kfree(ptr noundef nonnull %5) #7
  %27 = icmp eq ptr %26, null
  br i1 %27, label %33, label %28

28:                                               ; preds = %28, %25
  %29 = phi ptr [ %30, %28 ], [ %26, %25 ]
  %30 = load ptr, ptr %29, align 8
  %31 = tail call i32 @__SCT__cond_resched() #7
  tail call void @kfree(ptr noundef nonnull %29) #7
  %32 = icmp eq ptr %30, null
  br i1 %32, label %33, label %28, !llvm.loop !5

33:                                               ; preds = %28, %25, %10, %2
  %34 = phi ptr [ null, %2 ], [ null, %25 ], [ null, %28 ], [ %5, %10 ]
  %35 = icmp eq ptr %34, null
  br i1 %35, label %72, label %36

36:                                               ; preds = %33
  %37 = getelementptr i8, ptr %34, i64 48
  %38 = tail call i64 @_copy_from_user(ptr noundef %37, ptr noundef %0, i64 noundef %3) #7
  %39 = icmp eq i64 %38, 0
  br i1 %39, label %40, label %59

40:                                               ; preds = %36
  %41 = getelementptr inbounds i8, ptr %34, i64 32
  br label %42

42:                                               ; preds = %49, %40
  %43 = phi i64 [ %3, %40 ], [ %52, %49 ]
  %44 = phi ptr [ %41, %40 ], [ %47, %49 ]
  %45 = phi i64 [ %1, %40 ], [ %50, %49 ]
  %46 = phi ptr [ %0, %40 ], [ %51, %49 ]
  %47 = load ptr, ptr %44, align 8
  %48 = icmp eq ptr %47, null
  br i1 %48, label %56, label %49

49:                                               ; preds = %42
  %50 = sub i64 %45, %43
  %51 = getelementptr i8, ptr %46, i64 %43
  %52 = tail call i64 @llvm.umin.i64(i64 %50, i64 4088)
  %53 = getelementptr i8, ptr %47, i64 8
  %54 = tail call i64 @_copy_from_user(ptr noundef %53, ptr noundef %51, i64 noundef %52) #7
  %55 = icmp eq i64 %54, 0
  br i1 %55, label %42, label %59, !llvm.loop !8

56:                                               ; preds = %42
  %57 = tail call i32 @security_msg_msg_alloc(ptr noundef nonnull %34) #7
  %58 = icmp eq i32 %57, 0
  br i1 %58, label %72, label %59

59:                                               ; preds = %56, %49, %36
  %60 = phi i32 [ -14, %36 ], [ %57, %56 ], [ -14, %49 ]
  tail call void @security_msg_msg_free(ptr noundef nonnull %34) #7
  %61 = getelementptr inbounds i8, ptr %34, i64 32
  %62 = load ptr, ptr %61, align 8
  tail call void @kfree(ptr noundef nonnull %34) #7
  %63 = icmp eq ptr %62, null
  br i1 %63, label %69, label %64

64:                                               ; preds = %64, %59
  %65 = phi ptr [ %66, %64 ], [ %62, %59 ]
  %66 = load ptr, ptr %65, align 8
  %67 = tail call i32 @__SCT__cond_resched() #7
  tail call void @kfree(ptr noundef nonnull %65) #7
  %68 = icmp eq ptr %66, null
  br i1 %68, label %69, label %64, !llvm.loop !5

69:                                               ; preds = %64, %59
  %70 = sext i32 %60 to i64
  %71 = inttoptr i64 %70 to ptr
  br label %72

72:                                               ; preds = %69, %56, %33
  %73 = phi ptr [ %71, %69 ], [ %34, %56 ], [ inttoptr (i64 -12 to ptr), %33 ]
  ret ptr %73
}

; Function Attrs: null_pointer_is_valid
declare dso_local i32 @security_msg_msg_alloc(ptr noundef) local_unnamed_addr #1

; Function Attrs: fn_ret_thunk_extern nounwind null_pointer_is_valid
define dso_local void @free_msg(ptr noundef %0) local_unnamed_addr #0 align 16 {
  tail call void @security_msg_msg_free(ptr noundef %0) #7
  %2 = getelementptr inbounds i8, ptr %0, i64 32
  %3 = load ptr, ptr %2, align 8
  tail call void @kfree(ptr noundef %0) #7
  %4 = icmp eq ptr %3, null
  br i1 %4, label %10, label %5

5:                                                ; preds = %5, %1
  %6 = phi ptr [ %7, %5 ], [ %3, %1 ]
  %7 = load ptr, ptr %6, align 8
  %8 = tail call i32 @__SCT__cond_resched() #7
  tail call void @kfree(ptr noundef nonnull %6) #7
  %9 = icmp eq ptr %7, null
  br i1 %9, label %10, label %5, !llvm.loop !5

10:                                               ; preds = %5, %1
  ret void
}

; Function Attrs: fn_ret_thunk_extern mustprogress nofree norecurse nosync nounwind null_pointer_is_valid willreturn memory(none)
define dso_local noundef nonnull ptr @copy_msg(ptr nocapture noundef readnone %0, ptr nocapture noundef readnone %1) local_unnamed_addr #2 align 16 {
  ret ptr inttoptr (i64 -38 to ptr)
}

; Function Attrs: fn_ret_thunk_extern nounwind null_pointer_is_valid
define dso_local noundef i32 @store_msg(ptr noundef %0, ptr noundef %1, i64 noundef %2) local_unnamed_addr #0 align 16 {
  %4 = tail call i64 @llvm.umin.i64(i64 %2, i64 4048)
  %5 = getelementptr i8, ptr %1, i64 48
  %6 = tail call i64 @_copy_to_user(ptr noundef %0, ptr noundef %5, i64 noundef %4) #7
  %7 = icmp eq i64 %6, 0
  br i1 %7, label %8, label %24

8:                                                ; preds = %3
  %9 = getelementptr inbounds i8, ptr %1, i64 32
  br label %10

10:                                               ; preds = %17, %8
  %11 = phi ptr [ %9, %8 ], [ %15, %17 ]
  %12 = phi i64 [ %4, %8 ], [ %20, %17 ]
  %13 = phi i64 [ %2, %8 ], [ %18, %17 ]
  %14 = phi ptr [ %0, %8 ], [ %19, %17 ]
  %15 = load ptr, ptr %11, align 8
  %16 = icmp eq ptr %15, null
  br i1 %16, label %24, label %17

17:                                               ; preds = %10
  %18 = sub i64 %13, %12
  %19 = getelementptr i8, ptr %14, i64 %12
  %20 = tail call i64 @llvm.umin.i64(i64 %18, i64 4088)
  %21 = getelementptr i8, ptr %15, i64 8
  %22 = tail call i64 @_copy_to_user(ptr noundef %19, ptr noundef %21, i64 noundef %20) #7
  %23 = icmp eq i64 %22, 0
  br i1 %23, label %10, label %24, !llvm.loop !9

24:                                               ; preds = %17, %10, %3
  %25 = phi i32 [ -1, %3 ], [ -1, %17 ], [ 0, %10 ]
  ret i32 %25
}

; Function Attrs: null_pointer_is_valid
declare dso_local void @security_msg_msg_free(ptr noundef) local_unnamed_addr #1

; Function Attrs: null_pointer_is_valid
declare dso_local void @kfree(ptr noundef) local_unnamed_addr #1

; Function Attrs: null_pointer_is_valid allocsize(0)
declare dso_local noalias ptr @__kmalloc(i64 noundef, i32 noundef) local_unnamed_addr #3

; Function Attrs: null_pointer_is_valid
declare dso_local i64 @_copy_from_user(ptr noundef, ptr noundef, i64 noundef) local_unnamed_addr #1

; Function Attrs: null_pointer_is_valid
declare dso_local i64 @_copy_to_user(ptr noundef, ptr noundef, i64 noundef) local_unnamed_addr #1

; Function Attrs: null_pointer_is_valid
declare dso_local i32 @__SCT__cond_resched() local_unnamed_addr #1

; Function Attrs: nocallback nofree nosync nounwind speculatable willreturn memory(none)
declare i64 @llvm.umin.i64(i64, i64) #4

; Function Attrs: nocallback nofree nounwind willreturn memory(argmem: write)
declare void @llvm.memset.p0.i64(ptr nocapture writeonly, i8, i64, i1 immarg) #5


!llvm.module.flags = !{!0, !1, !2, !3, !4}

!0 = !{i32 1, !"wchar_size", i32 2}
!1 = !{i32 8, !"cf-protection-branch", i32 1}
!2 = !{i32 4, !"function_return_thunk_extern", i32 1}
!3 = !{i32 4, !"indirect_branch_cs_prefix", i32 1}
!4 = !{i32 4, !"SkipRaxSetup", i32 1}
!5 = distinct !{!5, !6, !7}
!6 = !{!"llvm.loop.mustprogress"}
!7 = !{!"llvm.loop.unroll.disable"}
!8 = distinct !{!8, !6, !7}
!9 = distinct !{!9, !6, !7}
