; ModuleID = 'bench/linux/original/msgutil.ll'
source_filename = "bench/linux/original/msgutil.ll"
target datalayout = "e-m:e-p270:32:32-p271:32:32-p272:64:64-i64:64-i128:128-f80:128-n8:16:32:64-S128"
target triple = "x86_64-unknown-linux-gnu"

%struct.spinlock = type { %union.anon.1 }
%union.anon.1 = type { %struct.raw_spinlock }
%struct.raw_spinlock = type { %struct.qspinlock }
%struct.qspinlock = type { %union.anon }
%union.anon = type { %struct.atomic_t }
%struct.atomic_t = type { i32 }
%struct.user_namespace = type opaque
%struct.proc_ns_operations = type { ptr, ptr, i32, ptr, ptr, ptr, ptr, ptr }
%struct.ipc_namespace = type { [3 x %struct.ipc_ids], [4 x i32], i32, i32, i32, i32, %struct.percpu_counter, %struct.percpu_counter, i64, i64, i64, i32, i32, %struct.notifier_block, ptr, i32, i32, i32, i32, i32, i32, %struct.ctl_table_set, ptr, %struct.ctl_table_set, ptr, ptr, ptr, %struct.llist_node, %struct.ns_common }
%struct.ipc_ids = type { i32, i16, %struct.rw_semaphore, %struct.idr, i32, i32, %struct.rhashtable }
%struct.rw_semaphore = type { %struct.atomic64_t, %struct.atomic64_t, %struct.optimistic_spin_queue, %struct.raw_spinlock, %struct.list_head }
%struct.atomic64_t = type { i64 }
%struct.optimistic_spin_queue = type { %struct.atomic_t }
%struct.list_head = type { ptr, ptr }
%struct.idr = type { %struct.xarray, i32, i32 }
%struct.xarray = type { %struct.spinlock, i32, ptr }
%struct.rhashtable = type { ptr, i32, i32, %struct.rhashtable_params, i8, %struct.work_struct, %struct.mutex, %struct.spinlock, %struct.atomic_t }
%struct.rhashtable_params = type { i16, i16, i16, i16, i32, i16, i8, ptr, ptr, ptr }
%struct.work_struct = type { %struct.atomic64_t, %struct.list_head, ptr }
%struct.mutex = type { %struct.atomic64_t, %struct.raw_spinlock, %struct.optimistic_spin_queue, %struct.list_head }
%struct.percpu_counter = type { %struct.raw_spinlock, i64, %struct.list_head, ptr }
%struct.notifier_block = type { ptr, ptr, i32 }
%struct.ctl_table_set = type { ptr, %struct.ctl_dir }
%struct.ctl_dir = type { %struct.ctl_table_header, %struct.rb_root }
%struct.ctl_table_header = type { %union.anon.2, ptr, ptr, ptr, ptr, ptr, ptr, %struct.hlist_head }
%union.anon.2 = type { %struct.anon.3 }
%struct.anon.3 = type { ptr, i32, i32, i32, i32 }
%struct.hlist_head = type { ptr }
%struct.rb_root = type { ptr }
%struct.llist_node = type { ptr }
%struct.ns_common = type { %struct.atomic64_t, ptr, i32, %struct.refcount_struct }
%struct.refcount_struct = type { %struct.atomic_t }
%struct.static_call_key = type { ptr, %union.anon.4 }
%union.anon.4 = type { i64 }

@mq_lock = dso_local local_unnamed_addr global %struct.spinlock zeroinitializer, align 4
@init_user_ns = external dso_local global %struct.user_namespace, align 1
@ipcns_operations = external dso_local constant %struct.proc_ns_operations, align 8
@init_ipc_ns = dso_local local_unnamed_addr global %struct.ipc_namespace { [3 x %struct.ipc_ids] zeroinitializer, [4 x i32] zeroinitializer, i32 0, i32 0, i32 0, i32 0, %struct.percpu_counter zeroinitializer, %struct.percpu_counter zeroinitializer, i64 0, i64 0, i64 0, i32 0, i32 0, %struct.notifier_block zeroinitializer, ptr null, i32 0, i32 0, i32 0, i32 0, i32 0, i32 0, %struct.ctl_table_set zeroinitializer, ptr null, %struct.ctl_table_set zeroinitializer, ptr null, ptr @init_user_ns, ptr null, %struct.llist_node zeroinitializer, %struct.ns_common { %struct.atomic64_t zeroinitializer, ptr @ipcns_operations, i32 -268435457, %struct.refcount_struct { %struct.atomic_t { i32 1 } } } }, align 8
@_cond_resched.__UNIQUE_ID___addressable___SCK__cond_resched203 = internal global ptr @__SCK__cond_resched, section ".discard.addressable", align 8
@__SCK__cond_resched = external dso_local global %struct.static_call_key, align 8
@llvm.compiler.used = appending global [1 x ptr] [ptr @_cond_resched.__UNIQUE_ID___addressable___SCK__cond_resched203], section "llvm.metadata"

; Function Attrs: fn_ret_thunk_extern nounwind null_pointer_is_valid
define dso_local ptr @load_msg(ptr noundef %0, i64 noundef %1) local_unnamed_addr #0 align 16 {
  %3 = tail call i64 @llvm.umin.i64(i64 %1, i64 4048)
  %4 = add nuw nsw i64 %3, 48
  %5 = tail call noalias align 8 ptr @__kmalloc(i64 noundef %4, i32 noundef 4197568) #6
  %6 = icmp eq ptr %5, null
  br i1 %6, label %.thread8, label %7

7:                                                ; preds = %2
  %8 = getelementptr inbounds i8, ptr %5, i64 32
  %9 = sub i64 %1, %3
  tail call void @llvm.memset.p0.i64(ptr noundef align 8 dereferenceable(16) %8, i8 0, i64 16, i1 false)
  %10 = icmp eq i64 %9, 0
  br i1 %10, label %._crit_edge, label %.lr.ph

.lr.ph:                                           ; preds = %7, %18
  %11 = phi i64 [ %19, %18 ], [ %9, %7 ]
  %12 = phi ptr [ %16, %18 ], [ %8, %7 ]
  %13 = tail call i32 @__SCT__cond_resched() #7
  %14 = tail call i64 @llvm.umin.i64(i64 %11, i64 4088)
  %15 = add nuw nsw i64 %14, 8
  %16 = tail call noalias align 8 ptr @__kmalloc(i64 noundef %15, i32 noundef 4197568) #6
  %17 = icmp eq ptr %16, null
  br i1 %17, label %21, label %18

18:                                               ; preds = %.lr.ph
  store ptr %16, ptr %12, align 8
  store ptr null, ptr %16, align 8
  %19 = sub i64 %11, %14
  %20 = icmp eq i64 %19, 0
  br i1 %20, label %._crit_edge, label %.lr.ph

21:                                               ; preds = %.lr.ph
  tail call void @security_msg_msg_free(ptr noundef nonnull %5) #7
  %22 = load ptr, ptr %8, align 8
  tail call void @kfree(ptr noundef nonnull %5) #7
  %23 = icmp eq ptr %22, null
  br i1 %23, label %.thread8, label %.preheader10

.preheader10:                                     ; preds = %21, %.preheader10
  %24 = phi ptr [ %25, %.preheader10 ], [ %22, %21 ]
  %25 = load ptr, ptr %24, align 8
  %26 = tail call i32 @__SCT__cond_resched() #7
  tail call void @kfree(ptr noundef nonnull %24) #7
  %27 = icmp eq ptr %25, null
  br i1 %27, label %.thread8, label %.preheader10, !llvm.loop !5

._crit_edge:                                      ; preds = %18, %7
  %28 = getelementptr i8, ptr %5, i64 48
  %29 = tail call i64 @_copy_from_user(ptr noundef %28, ptr noundef %0, i64 noundef %3) #7
  %30 = icmp eq i64 %29, 0
  br i1 %30, label %.preheader11, label %.loopexit9

.preheader11:                                     ; preds = %._crit_edge, %37
  %31 = phi i64 [ %40, %37 ], [ %3, %._crit_edge ]
  %32 = phi ptr [ %35, %37 ], [ %8, %._crit_edge ]
  %33 = phi i64 [ %38, %37 ], [ %1, %._crit_edge ]
  %34 = phi ptr [ %39, %37 ], [ %0, %._crit_edge ]
  %35 = load ptr, ptr %32, align 8
  %36 = icmp eq ptr %35, null
  br i1 %36, label %44, label %37

37:                                               ; preds = %.preheader11
  %38 = sub i64 %33, %31
  %39 = getelementptr i8, ptr %34, i64 %31
  %40 = tail call i64 @llvm.umin.i64(i64 %38, i64 4088)
  %41 = getelementptr i8, ptr %35, i64 8
  %42 = tail call i64 @_copy_from_user(ptr noundef %41, ptr noundef %39, i64 noundef %40) #7
  %43 = icmp eq i64 %42, 0
  br i1 %43, label %.preheader11, label %.loopexit9, !llvm.loop !8

44:                                               ; preds = %.preheader11
  %45 = tail call i32 @security_msg_msg_alloc(ptr noundef nonnull %5) #7
  %46 = icmp eq i32 %45, 0
  br i1 %46, label %.thread8, label %.loopexit9

.loopexit9:                                       ; preds = %37, %44, %._crit_edge
  %47 = phi i32 [ -14, %._crit_edge ], [ %45, %44 ], [ -14, %37 ]
  tail call void @security_msg_msg_free(ptr noundef nonnull %5) #7
  %48 = load ptr, ptr %8, align 8
  tail call void @kfree(ptr noundef nonnull %5) #7
  %49 = icmp eq ptr %48, null
  br i1 %49, label %.loopexit, label %.preheader

.preheader:                                       ; preds = %.loopexit9, %.preheader
  %50 = phi ptr [ %51, %.preheader ], [ %48, %.loopexit9 ]
  %51 = load ptr, ptr %50, align 8
  %52 = tail call i32 @__SCT__cond_resched() #7
  tail call void @kfree(ptr noundef nonnull %50) #7
  %53 = icmp eq ptr %51, null
  br i1 %53, label %.loopexit, label %.preheader, !llvm.loop !5

.loopexit:                                        ; preds = %.preheader, %.loopexit9
  %54 = sext i32 %47 to i64
  %55 = inttoptr i64 %54 to ptr
  br label %.thread8

.thread8:                                         ; preds = %.preheader10, %21, %2, %.loopexit, %44
  %56 = phi ptr [ %55, %.loopexit ], [ %5, %44 ], [ inttoptr (i64 -12 to ptr), %2 ], [ inttoptr (i64 -12 to ptr), %21 ], [ inttoptr (i64 -12 to ptr), %.preheader10 ]
  ret ptr %56
}

; Function Attrs: null_pointer_is_valid
declare dso_local i32 @security_msg_msg_alloc(ptr noundef) local_unnamed_addr #1

; Function Attrs: fn_ret_thunk_extern nounwind null_pointer_is_valid
define dso_local void @free_msg(ptr noundef %0) local_unnamed_addr #0 align 16 {
  tail call void @security_msg_msg_free(ptr noundef %0) #7
  %2 = getelementptr inbounds i8, ptr %0, i64 32
  %3 = load ptr, ptr %2, align 8
  tail call void @kfree(ptr noundef %0) #7
  %4 = icmp eq ptr %3, null
  br i1 %4, label %.loopexit, label %.preheader

.preheader:                                       ; preds = %1, %.preheader
  %5 = phi ptr [ %6, %.preheader ], [ %3, %1 ]
  %6 = load ptr, ptr %5, align 8
  %7 = tail call i32 @__SCT__cond_resched() #7
  tail call void @kfree(ptr noundef nonnull %5) #7
  %8 = icmp eq ptr %6, null
  br i1 %8, label %.loopexit, label %.preheader, !llvm.loop !5

.loopexit:                                        ; preds = %.preheader, %1
  ret void
}

; Function Attrs: fn_ret_thunk_extern mustprogress nofree norecurse nosync nounwind null_pointer_is_valid willreturn memory(none)
define dso_local noundef nonnull ptr @copy_msg(ptr nocapture noundef readnone %0, ptr nocapture noundef readnone %1) local_unnamed_addr #2 align 16 {
  ret ptr inttoptr (i64 -38 to ptr)
}

; Function Attrs: fn_ret_thunk_extern nounwind null_pointer_is_valid
define dso_local noundef i32 @store_msg(ptr noundef %0, ptr noundef %1, i64 noundef %2) local_unnamed_addr #0 align 16 {
  %4 = tail call i64 @llvm.umin.i64(i64 %2, i64 4048)
  %5 = getelementptr i8, ptr %1, i64 48
  %6 = tail call i64 @_copy_to_user(ptr noundef %0, ptr noundef %5, i64 noundef %4) #7
  %7 = icmp eq i64 %6, 0
  br i1 %7, label %8, label %.loopexit

8:                                                ; preds = %3
  %9 = getelementptr inbounds i8, ptr %1, i64 32
  br label %10

10:                                               ; preds = %17, %8
  %11 = phi ptr [ %9, %8 ], [ %15, %17 ]
  %12 = phi i64 [ %4, %8 ], [ %20, %17 ]
  %13 = phi i64 [ %2, %8 ], [ %18, %17 ]
  %14 = phi ptr [ %0, %8 ], [ %19, %17 ]
  %15 = load ptr, ptr %11, align 8
  %16 = icmp eq ptr %15, null
  br i1 %16, label %.loopexit, label %17

17:                                               ; preds = %10
  %18 = sub i64 %13, %12
  %19 = getelementptr i8, ptr %14, i64 %12
  %20 = tail call i64 @llvm.umin.i64(i64 %18, i64 4088)
  %21 = getelementptr i8, ptr %15, i64 8
  %22 = tail call i64 @_copy_to_user(ptr noundef %19, ptr noundef %21, i64 noundef %20) #7
  %23 = icmp eq i64 %22, 0
  br i1 %23, label %10, label %.loopexit, !llvm.loop !9

.loopexit:                                        ; preds = %17, %10, %3
  %24 = phi i32 [ -1, %3 ], [ 0, %10 ], [ -1, %17 ]
  ret i32 %24
}

; Function Attrs: null_pointer_is_valid
declare dso_local void @security_msg_msg_free(ptr noundef) local_unnamed_addr #1

; Function Attrs: null_pointer_is_valid
declare dso_local void @kfree(ptr noundef) local_unnamed_addr #1

; Function Attrs: null_pointer_is_valid allocsize(0)
declare dso_local noalias ptr @__kmalloc(i64 noundef, i32 noundef) local_unnamed_addr #3

; Function Attrs: null_pointer_is_valid
declare dso_local i64 @_copy_from_user(ptr noundef, ptr noundef, i64 noundef) local_unnamed_addr #1

; Function Attrs: null_pointer_is_valid
declare dso_local i64 @_copy_to_user(ptr noundef, ptr noundef, i64 noundef) local_unnamed_addr #1

; Function Attrs: null_pointer_is_valid
declare dso_local i32 @__SCT__cond_resched() local_unnamed_addr #1

; Function Attrs: mustprogress nocallback nofree nosync nounwind speculatable willreturn memory(none)
declare i64 @llvm.umin.i64(i64, i64) #4

; Function Attrs: mustprogress nocallback nofree nounwind willreturn memory(argmem: write)
declare void @llvm.memset.p0.i64(ptr nocapture writeonly, i8, i64, i1 immarg) #5


!llvm.module.flags = !{!0, !1, !2, !3, !4}

!0 = !{i32 1, !"wchar_size", i32 2}
!1 = !{i32 8, !"cf-protection-branch", i32 1}
!2 = !{i32 4, !"function_return_thunk_extern", i32 1}
!3 = !{i32 4, !"indirect_branch_cs_prefix", i32 1}
!4 = !{i32 4, !"SkipRaxSetup", i32 1}
!5 = distinct !{!5, !6, !7}
!6 = !{!"llvm.loop.mustprogress"}
!7 = !{!"llvm.loop.unroll.disable"}
!8 = distinct !{!8, !6, !7}
!9 = distinct !{!9, !6, !7}
